target datalayout = "e-m:e-p270:32:32-p271:32:32-p272:64:64-i64:64-i128:128-f80:128-n8:16:32:64-S128"
target triple = "x86_64-pc-linux-gnu"

%struct.v3_ext_ctx = type { i32, ptr, ptr, ptr, ptr, ptr, ptr, ptr }

@.str = private unnamed_addr constant [33 x i8] c"../openssl/crypto/x509/v3_conf.c\00", align 1
@__func__.X509V3_set_ctx = private unnamed_addr constant [15 x i8] c"X509V3_set_ctx\00", align 1

; Function Attrs: nounwind uwtable
define void @X509V3_set_ctx(ptr noundef %0, ptr noundef %1, ptr noundef %2, ptr noundef %3, ptr noundef %4, i32 noundef %5) #0 {
  %7 = alloca ptr, align 8
  %8 = alloca ptr, align 8
  %9 = alloca ptr, align 8
  %10 = alloca ptr, align 8
  %11 = alloca ptr, align 8
  %12 = alloca i32, align 4
  store ptr %0, ptr %7, align 8, !tbaa !8
  store ptr %1, ptr %8, align 8, !tbaa !63
  store ptr %2, ptr %9, align 8, !tbaa !63
  store ptr %3, ptr %10, align 8, !tbaa !65
  store ptr %4, ptr %11, align 8, !tbaa !64
  store i32 %5, ptr %12, align 4, !tbaa !12
  %13 = load ptr, ptr %7, align 8, !tbaa !8
  %14 = icmp eq ptr %13, null
  br i1 %14, label %15, label %16

15:                                               ; preds = %6
  call void @ERR_new()
  call void @ERR_set_debug(ptr noundef @.str, i32 noundef 468, ptr noundef @__func__.X509V3_set_ctx)
  call void (i32, i32, ptr, ...) @ERR_set_error(i32 noundef 34, i32 noundef 786690, ptr noundef null)
  br label %38

16:                                               ; preds = %6
  %17 = load i32, ptr %12, align 4, !tbaa !12
  %18 = load ptr, ptr %7, align 8, !tbaa !8
  %19 = getelementptr inbounds nuw %struct.v3_ext_ctx, ptr %18, i32 0, i32 0
  store i32 %17, ptr %19, align 8, !tbaa !58
  %20 = load ptr, ptr %8, align 8, !tbaa !63
  %21 = load ptr, ptr %7, align 8, !tbaa !8
  %22 = getelementptr inbounds nuw %struct.v3_ext_ctx, ptr %21, i32 0, i32 1
  store ptr %20, ptr %22, align 8, !tbaa !71
  %23 = load ptr, ptr %9, align 8, !tbaa !63
  %24 = load ptr, ptr %7, align 8, !tbaa !8
  %25 = getelementptr inbounds nuw %struct.v3_ext_ctx, ptr %24, i32 0, i32 2
  store ptr %23, ptr %25, align 8, !tbaa !72
  %26 = load ptr, ptr %10, align 8, !tbaa !65
  %27 = load ptr, ptr %7, align 8, !tbaa !8
  %28 = getelementptr inbounds nuw %struct.v3_ext_ctx, ptr %27, i32 0, i32 3
  store ptr %26, ptr %28, align 8, !tbaa !73
  %29 = load ptr, ptr %11, align 8, !tbaa !64
  %30 = load ptr, ptr %7, align 8, !tbaa !8
  %31 = getelementptr inbounds nuw %struct.v3_ext_ctx, ptr %30, i32 0, i32 4
  store ptr %29, ptr %31, align 8, !tbaa !74
  %32 = load ptr, ptr %7, align 8, !tbaa !8
  %33 = getelementptr inbounds nuw %struct.v3_ext_ctx, ptr %32, i32 0, i32 5
  store ptr null, ptr %33, align 8, !tbaa !47
  %34 = load ptr, ptr %7, align 8, !tbaa !8
  %35 = getelementptr inbounds nuw %struct.v3_ext_ctx, ptr %34, i32 0, i32 6
  store ptr null, ptr %35, align 8, !tbaa !40
  %36 = load ptr, ptr %7, align 8, !tbaa !8
  %37 = getelementptr inbounds nuw %struct.v3_ext_ctx, ptr %36, i32 0, i32 7
  store ptr null, ptr %37, align 8, !tbaa !75
  br label %38

38:                                               ; preds = %16, %15
  ret void
}