; Function Attrs: nounwind uwtable
define void @X509V3_set_ctx(ptr noundef writeonly captures(address_is_null) %0, ptr noundef %1, ptr noundef %2, ptr noundef %3, ptr noundef %4, i32 noundef %5) local_unnamed_addr #0 {
  %7 = icmp eq ptr %0, null
  br i1 %7, label %8, label %9

8:                                                ; preds = %6
  tail call void @ERR_new() #6
  tail call void @ERR_set_debug(ptr noundef nonnull @.str, i32 noundef 468, ptr noundef nonnull @__func__.X509V3_set_ctx) #6
  tail call void (i32, i32, ptr, ...) @ERR_set_error(i32 noundef 34, i32 noundef 786690, ptr noundef null) #6
  br label %15

9:                                                ; preds = %6
  store i32 %5, ptr %0, align 8, !tbaa !39
  %10 = getelementptr inbounds nuw i8, ptr %0, i64 8
  store ptr %1, ptr %10, align 8, !tbaa !48
  %11 = getelementptr inbounds nuw i8, ptr %0, i64 16
  store ptr %2, ptr %11, align 8, !tbaa !49
  %12 = getelementptr inbounds nuw i8, ptr %0, i64 24
  store ptr %3, ptr %12, align 8, !tbaa !50
  %13 = getelementptr inbounds nuw i8, ptr %0, i64 32
  store ptr %4, ptr %13, align 8, !tbaa !51
  %14 = getelementptr inbounds nuw i8, ptr %0, i64 40
  tail call void @llvm.memset.p0.i64(ptr noundef nonnull align 8 dereferenceable(24) %14, i8 0, i64 24, i1 false)
  br label %15

15:                                               ; preds = %9, %8
  ret void
}